target datalayout = "e-m:e-p270:32:32-p271:32:32-p272:64:64-i64:64-i128:128-f80:128-n8:16:32:64-S128"
target triple = "x86_64-pc-linux-gnu"

%struct.JNINativeInterface_ = type { ptr, ptr, ptr, ptr, ptr, ptr, ptr, ptr, ptr, ptr, ptr, ptr, ptr, ptr, ptr, ptr, ptr, ptr, ptr, ptr, ptr, ptr, ptr, ptr, ptr, ptr, ptr, ptr, ptr, ptr, ptr, ptr, ptr, ptr, ptr, ptr, ptr, ptr, ptr, ptr, ptr, ptr, ptr, ptr, ptr, ptr, ptr, ptr, ptr, ptr, ptr, ptr, ptr, ptr, ptr, ptr, ptr, ptr, ptr, ptr, ptr, ptr, ptr, ptr, ptr, ptr, ptr, ptr, ptr, ptr, ptr, ptr, ptr, ptr, ptr, ptr, ptr, ptr, ptr, ptr, ptr, ptr, ptr, ptr, ptr, ptr, ptr, ptr, ptr, ptr, ptr, ptr, ptr, ptr, ptr, ptr, ptr, ptr, ptr, ptr, ptr, ptr, ptr, ptr, ptr, ptr, ptr, ptr, ptr, ptr, ptr, ptr, ptr, ptr, ptr, ptr, ptr, ptr, ptr, ptr, ptr, ptr, ptr, ptr, ptr, ptr, ptr, ptr, ptr, ptr, ptr, ptr, ptr, ptr, ptr, ptr, ptr, ptr, ptr, ptr, ptr, ptr, ptr, ptr, ptr, ptr, ptr, ptr, ptr, ptr, ptr, ptr, ptr, ptr, ptr, ptr, ptr, ptr, ptr, ptr, ptr, ptr, ptr, ptr, ptr, ptr, ptr, ptr, ptr, ptr, ptr, ptr, ptr, ptr, ptr, ptr, ptr, ptr, ptr, ptr, ptr, ptr, ptr, ptr, ptr, ptr, ptr, ptr, ptr, ptr, ptr, ptr, ptr, ptr, ptr, ptr, ptr, ptr, ptr, ptr, ptr, ptr, ptr, ptr, ptr, ptr, ptr, ptr, ptr, ptr, ptr, ptr, ptr, ptr, ptr, ptr, ptr, ptr, ptr, ptr, ptr, ptr, ptr, ptr, ptr, ptr, ptr, ptr, ptr, ptr, ptr, ptr, ptr, ptr, ptr }

@.str = private unnamed_addr constant [26 x i8] c"isSafeForJNICalls(jnienv)\00", align 1
@.str.1 = private unnamed_addr constant [64 x i8] c"src/java.instrument/share/native/libinstrument/JavaExceptions.c\00", align 1
@.str.2 = private unnamed_addr constant [23 x i8] c"throwableToMap != NULL\00", align 1
@.str.3 = private unnamed_addr constant [37 x i8] c"!isUnchecked(jnienv, throwableToMap)\00", align 1
@.str.8 = private unnamed_addr constant [24 x i8] c"java/lang/InternalError\00", align 1
@.str.32 = private unnamed_addr constant [16 x i8] c"java/lang/Error\00", align 1
@.str.33 = private unnamed_addr constant [27 x i8] c"java/lang/RuntimeException\00", align 1

; Function Attrs: nounwind uwtable
define hidden ptr @createInternalError(ptr noundef %0, ptr noundef %1) #0 {
  %3 = alloca ptr, align 8
  %4 = alloca ptr, align 8
  store ptr %0, ptr %3, align 8
  store ptr %1, ptr %4, align 8
  %5 = load ptr, ptr %3, align 8
  %6 = load ptr, ptr %4, align 8
  %7 = call ptr @createThrowable(ptr noundef %5, ptr noundef @.str.8, ptr noundef %6)
  ret ptr %7
}

; Function Attrs: nounwind uwtable
define hidden zeroext i8 @isUnchecked(ptr noundef %0, ptr noundef %1) #0 {
  %3 = alloca ptr, align 8
  %4 = alloca ptr, align 8
  %5 = alloca i8, align 1
  store ptr %0, ptr %3, align 8
  store ptr %1, ptr %4, align 8
  store i8 0, ptr %5, align 1
  %6 = load ptr, ptr %3, align 8
  %7 = call zeroext i8 @isSafeForJNICalls(ptr noundef %6)
  call void @JPLISAssertCondition(i8 noundef zeroext %7, ptr noundef @.str, ptr noundef @.str.1, i32 noundef 323)
  %8 = load ptr, ptr %4, align 8
  %9 = icmp eq ptr %8, null
  br i1 %9, label %22, label %10

10:                                               ; preds = %2
  %11 = load ptr, ptr %3, align 8
  %12 = load ptr, ptr %4, align 8
  %13 = call zeroext i8 @isInstanceofClassName(ptr noundef %11, ptr noundef %12, ptr noundef @.str.32)
  %14 = zext i8 %13 to i32
  %15 = icmp ne i32 %14, 0
  br i1 %15, label %22, label %16

16:                                               ; preds = %10
  %17 = load ptr, ptr %3, align 8
  %18 = load ptr, ptr %4, align 8
  %19 = call zeroext i8 @isInstanceofClassName(ptr noundef %17, ptr noundef %18, ptr noundef @.str.33)
  %20 = zext i8 %19 to i32
  %21 = icmp ne i32 %20, 0
  br label %22

22:                                               ; preds = %16, %10, %2
  %23 = phi i1 [ true, %10 ], [ true, %2 ], [ %21, %16 ]
  %24 = zext i1 %23 to i32
  %25 = trunc i32 %24 to i8
  store i8 %25, ptr %5, align 1
  %26 = load ptr, ptr %3, align 8
  %27 = call zeroext i8 @isSafeForJNICalls(ptr noundef %26)
  call void @JPLISAssertCondition(i8 noundef zeroext %27, ptr noundef @.str, ptr noundef @.str.1, i32 noundef 327)
  %28 = load i8, ptr %5, align 1
  ret i8 %28
}

; Function Attrs: nounwind uwtable
define hidden zeroext i8 @isSafeForJNICalls(ptr noundef %0) #0 {
  %2 = alloca ptr, align 8
  store ptr %0, ptr %2, align 8
  %3 = load ptr, ptr %2, align 8
  %4 = load ptr, ptr %3, align 8
  %5 = getelementptr inbounds %struct.JNINativeInterface_, ptr %4, i32 0, i32 228
  %6 = load ptr, ptr %5, align 8
  %7 = load ptr, ptr %2, align 8
  %8 = call zeroext i8 %6(ptr noundef %7)
  %9 = icmp ne i8 %8, 0
  %10 = xor i1 %9, true
  %11 = zext i1 %10 to i32
  %12 = trunc i32 %11 to i8
  ret i8 %12
}

; Function Attrs: nounwind uwtable
define hidden ptr @mapAllCheckedToInternalErrorMapper(ptr noundef %0, ptr noundef %1) #0 {
  %3 = alloca ptr, align 8
  %4 = alloca ptr, align 8
  %5 = alloca ptr, align 8
  %6 = alloca ptr, align 8
  store ptr %0, ptr %3, align 8
  store ptr %1, ptr %4, align 8
  store ptr null, ptr %5, align 8
  store ptr null, ptr %6, align 8
  %7 = load ptr, ptr %4, align 8
  %8 = icmp ne ptr %7, null
  %9 = zext i1 %8 to i32
  %10 = trunc i32 %9 to i8
  call void @JPLISAssertCondition(i8 noundef zeroext %10, ptr noundef @.str.2, ptr noundef @.str.1, i32 noundef 86)
  %11 = load ptr, ptr %3, align 8
  %12 = call zeroext i8 @isSafeForJNICalls(ptr noundef %11)
  call void @JPLISAssertCondition(i8 noundef zeroext %12, ptr noundef @.str, ptr noundef @.str.1, i32 noundef 87)
  %13 = load ptr, ptr %3, align 8
  %14 = load ptr, ptr %4, align 8
  %15 = call zeroext i8 @isUnchecked(ptr noundef %13, ptr noundef %14)
  %16 = icmp ne i8 %15, 0
  %17 = xor i1 %16, true
  %18 = zext i1 %17 to i32
  %19 = trunc i32 %18 to i8
  call void @JPLISAssertCondition(i8 noundef zeroext %19, ptr noundef @.str.3, ptr noundef @.str.1, i32 noundef 88)
  %20 = load ptr, ptr %3, align 8
  %21 = load ptr, ptr %4, align 8
  %22 = call ptr @getMessageFromThrowable(ptr noundef %20, ptr noundef %21)
  store ptr %22, ptr %6, align 8
  %23 = load ptr, ptr %3, align 8
  %24 = load ptr, ptr %6, align 8
  %25 = call ptr @createInternalError(ptr noundef %23, ptr noundef %24)
  store ptr %25, ptr %5, align 8
  %26 = load ptr, ptr %3, align 8
  %27 = call zeroext i8 @isSafeForJNICalls(ptr noundef %26)
  call void @JPLISAssertCondition(i8 noundef zeroext %27, ptr noundef @.str, ptr noundef @.str.1, i32 noundef 93)
  %28 = load ptr, ptr %5, align 8
  ret ptr %28
}