; Function Attrs: nounwind uwtable
define hidden ptr @mapAllCheckedToInternalErrorMapper(ptr noundef %0, ptr noundef %1) local_unnamed_addr #1 {
  %3 = icmp ne ptr %1, null
  %4 = zext i1 %3 to i8
  tail call void @JPLISAssertCondition(i8 noundef zeroext %4, ptr noundef nonnull @.str.2, ptr noundef nonnull @.str.1, i32 noundef 86) #3
  %5 = load ptr, ptr %0, align 8
  %6 = getelementptr inbounds i8, ptr %5, i64 1824
  %7 = load ptr, ptr %6, align 8
  %8 = tail call zeroext i8 %7(ptr noundef nonnull %0) #3
  %.not.i = icmp eq i8 %8, 0
  %9 = zext i1 %.not.i to i8
  tail call void @JPLISAssertCondition(i8 noundef zeroext %9, ptr noundef nonnull @.str, ptr noundef nonnull @.str.1, i32 noundef 87) #3
  %10 = load ptr, ptr %0, align 8
  %11 = getelementptr inbounds i8, ptr %10, i64 1824
  %12 = load ptr, ptr %11, align 8
  %13 = tail call zeroext i8 %12(ptr noundef nonnull %0) #3
  %.not.i.i = icmp eq i8 %13, 0
  %14 = zext i1 %.not.i.i to i8
  tail call void @JPLISAssertCondition(i8 noundef zeroext %14, ptr noundef nonnull @.str, ptr noundef nonnull @.str.1, i32 noundef 323) #3
  %15 = icmp eq ptr %1, null
  br i1 %15, label %isUnchecked.exit, label %16

16:                                               ; preds = %2
  %17 = tail call zeroext i8 @isInstanceofClassName(ptr noundef nonnull %0, ptr noundef nonnull %1, ptr noundef nonnull @.str.32) #3
  %.not.i10 = icmp eq i8 %17, 0
  br i1 %.not.i10, label %18, label %isUnchecked.exit

18:                                               ; preds = %16
  %19 = tail call zeroext i8 @isInstanceofClassName(ptr noundef nonnull %0, ptr noundef nonnull %1, ptr noundef nonnull @.str.33) #3
  %20 = icmp eq i8 %19, 0
  %21 = zext i1 %20 to i8
  br label %isUnchecked.exit

isUnchecked.exit:                                 ; preds = %2, %16, %18
  %22 = phi i8 [ 0, %16 ], [ 0, %2 ], [ %21, %18 ]
  %23 = load ptr, ptr %0, align 8
  %24 = getelementptr inbounds i8, ptr %23, i64 1824
  %25 = load ptr, ptr %24, align 8
  %26 = tail call zeroext i8 %25(ptr noundef nonnull %0) #3
  %.not.i7.i = icmp eq i8 %26, 0
  %27 = zext i1 %.not.i7.i to i8
  tail call void @JPLISAssertCondition(i8 noundef zeroext %27, ptr noundef nonnull @.str, ptr noundef nonnull @.str.1, i32 noundef 327) #3
  tail call void @JPLISAssertCondition(i8 noundef zeroext %22, ptr noundef nonnull @.str.3, ptr noundef nonnull @.str.1, i32 noundef 88) #3
  %28 = tail call ptr @getMessageFromThrowable(ptr noundef nonnull %0, ptr noundef %1)
  %29 = tail call ptr @createThrowable(ptr noundef nonnull %0, ptr noundef nonnull @.str.8, ptr noundef %28)
  %30 = load ptr, ptr %0, align 8
  %31 = getelementptr inbounds i8, ptr %30, i64 1824
  %32 = load ptr, ptr %31, align 8
  %33 = tail call zeroext i8 %32(ptr noundef nonnull %0) #3
  %.not.i11 = icmp eq i8 %33, 0
  %34 = zext i1 %.not.i11 to i8
  tail call void @JPLISAssertCondition(i8 noundef zeroext %34, ptr noundef nonnull @.str, ptr noundef nonnull @.str.1, i32 noundef 93) #3
  ret ptr %29
}